; Function Attrs: null_pointer_is_valid sspstrong uwtable
define hidden void @extcap_free_if_configuration(ptr noundef %0, i1 noundef zeroext %1) local_unnamed_addr #0 {
  %3 = tail call ptr @g_list_first(ptr noundef %0)
  %.not10 = icmp eq ptr %3, null
  br i1 %.not10, label %._crit_edge, label %.lr.ph

.lr.ph:                                           ; preds = %2
  br i1 %1, label %.lr.ph.split.us, label %.lr.ph.split

.lr.ph.split.us:                                  ; preds = %.lr.ph, %7
  %.011.us = phi ptr [ %9, %7 ], [ %3, %.lr.ph ]
  %4 = load ptr, ptr %.011.us, align 8
  %.not9.us = icmp eq ptr %4, null
  br i1 %.not9.us, label %7, label %5

5:                                                ; preds = %.lr.ph.split.us
  %6 = tail call ptr @g_list_first(ptr noundef nonnull %4)
  tail call void @extcap_free_arg_list(ptr noundef %6)
  br label %7

7:                                                ; preds = %5, %.lr.ph.split.us
  %8 = getelementptr inbounds nuw i8, ptr %.011.us, i64 8
  %9 = load ptr, ptr %8, align 8
  %.not.us = icmp eq ptr %9, null
  br i1 %.not.us, label %._crit_edge, label %.lr.ph.split.us, !llvm.loop !26

.lr.ph.split:                                     ; preds = %.lr.ph, %13
  %.011 = phi ptr [ %15, %13 ], [ %3, %.lr.ph ]
  %10 = load ptr, ptr %.011, align 8
  %.not9 = icmp eq ptr %10, null
  br i1 %.not9, label %13, label %11

11:                                               ; preds = %.lr.ph.split
  %12 = tail call ptr @g_list_first(ptr noundef nonnull %10)
  tail call void @g_list_free(ptr noundef %12)
  br label %13

13:                                               ; preds = %.lr.ph.split, %11
  %14 = getelementptr inbounds nuw i8, ptr %.011, i64 8
  %15 = load ptr, ptr %14, align 8
  %.not = icmp eq ptr %15, null
  br i1 %.not, label %._crit_edge, label %.lr.ph.split, !llvm.loop !26

._crit_edge:                                      ; preds = %13, %7, %2
  tail call void @g_list_free(ptr noundef %0)
  ret void
}